target datalayout = "e-m:e-p270:32:32-p271:32:32-p272:64:64-i64:64-i128:128-f80:128-n8:16:32:64-S128"
target triple = "x86_64-pc-linux-gnu"

%struct.darktable_t = type { %struct.dt_codepath_t, i32, i32, ptr, ptr, ptr, ptr, ptr, ptr, ptr, ptr, ptr, ptr, ptr, ptr, ptr, ptr, ptr, ptr, ptr, ptr, ptr, ptr, ptr, ptr, ptr, ptr, ptr, ptr, ptr, [64 x %struct.dt_pthread_mutex_t], %struct.dt_pthread_mutex_t, %struct.dt_pthread_mutex_t, %struct.dt_pthread_mutex_t, %struct.dt_pthread_mutex_t, %struct.dt_pthread_mutex_t, ptr, ptr, ptr, ptr, ptr, ptr, ptr, ptr, ptr, ptr, ptr, ptr, ptr, %struct.dt_lua_state_t, ptr, double, ptr, i32, [47 x i32], i32, i32, ptr, ptr, %struct.dt_sys_resources_t, %struct.dt_backthumb_t, %struct.dt_gimp_t }
%struct.dt_codepath_t = type { i8, [3 x i8] }
%struct.dt_pthread_mutex_t = type { %union.pthread_mutex_t }
%union.pthread_mutex_t = type { %struct.__pthread_mutex_s }
%struct.__pthread_mutex_s = type { i32, i32, i32, i32, i32, i16, i16, %struct.__pthread_internal_list }
%struct.__pthread_internal_list = type { ptr, ptr }
%struct.dt_lua_state_t = type { i32 }
%struct.dt_sys_resources_t = type { i64, i64, ptr, ptr, i32 }
%struct.dt_backthumb_t = type { double, double, i32, i32, i32, i32 }
%struct.dt_gimp_t = type { i32, ptr, ptr, i32, i32 }
%struct._GtkTextIter = type { ptr, ptr, i32, i32, i32, i32, i32, i32, ptr, ptr, i32, i32, i32, ptr }
%struct._GError = type { i32, i32, ptr }

@darktable = external global %struct.darktable_t, align 8
@.str.81 = private unnamed_addr constant [12 x i8] c"%s/user.css\00", align 1
@.str.101 = private unnamed_addr constant [31 x i8] c"%s: error saving css to %s: %s\00", align 1
@__func__.save_usercss = private unnamed_addr constant [13 x i8] c"save_usercss\00", align 1

; Function Attrs: nounwind uwtable
define internal void @save_usercss(ptr noundef %0) #0 {
  %2 = alloca ptr, align 8
  %3 = alloca [4096 x i8], align 16
  %4 = alloca [4096 x i8], align 16
  %5 = alloca %struct._GtkTextIter, align 8
  %6 = alloca %struct._GtkTextIter, align 8
  %7 = alloca ptr, align 8
  %8 = alloca ptr, align 8
  store ptr %0, ptr %2, align 8, !tbaa !99
  call void @llvm.lifetime.start.p0(i64 4096, ptr %3) #10
  call void @llvm.memset.p0.i64(ptr align 16 %3, i8 0, i64 4096, i1 false)
  call void @llvm.lifetime.start.p0(i64 4096, ptr %4) #10
  call void @llvm.memset.p0.i64(ptr align 16 %4, i8 0, i64 4096, i1 false)
  %9 = getelementptr inbounds [4096 x i8], ptr %4, i64 0, i64 0
  call void @dt_loc_get_user_config_dir(ptr noundef %9, i64 noundef 4096)
  %10 = getelementptr inbounds [4096 x i8], ptr %3, i64 0, i64 0
  %11 = getelementptr inbounds [4096 x i8], ptr %4, i64 0, i64 0
  %12 = call i32 (ptr, i64, ptr, ...) @g_snprintf(ptr noundef %10, i64 noundef 4096, ptr noundef @.str.81, ptr noundef %11)
  call void @llvm.lifetime.start.p0(i64 80, ptr %5) #10
  call void @llvm.lifetime.start.p0(i64 80, ptr %6) #10
  %13 = load ptr, ptr %2, align 8, !tbaa !99
  call void @gtk_text_buffer_get_start_iter(ptr noundef %13, ptr noundef %5)
  %14 = load ptr, ptr %2, align 8, !tbaa !99
  call void @gtk_text_buffer_get_end_iter(ptr noundef %14, ptr noundef %6)
  call void @llvm.lifetime.start.p0(i64 8, ptr %7) #10
  %15 = load ptr, ptr %2, align 8, !tbaa !99
  %16 = call ptr @gtk_text_buffer_get_text(ptr noundef %15, ptr noundef %5, ptr noundef %6, i32 noundef 0)
  store ptr %16, ptr %7, align 8, !tbaa !73
  call void @llvm.lifetime.start.p0(i64 8, ptr %8) #10
  store ptr null, ptr %8, align 8, !tbaa !133
  %17 = getelementptr inbounds [4096 x i8], ptr %3, i64 0, i64 0
  %18 = load ptr, ptr %7, align 8, !tbaa !73
  %19 = call i32 @g_file_set_contents(ptr noundef %17, ptr noundef %18, i64 noundef -1, ptr noundef %8)
  %20 = icmp ne i32 %19, 0
  br i1 %20, label %35, label %21

21:                                               ; preds = %1
  br label %22

22:                                               ; preds = %21
  %23 = load i32, ptr getelementptr inbounds nuw (%struct.darktable_t, ptr @darktable, i32 0, i32 2), align 8, !tbaa !82
  %24 = xor i32 %23, -1
  %25 = and i32 0, %24
  %26 = icmp ne i32 %25, 0
  br i1 %26, label %32, label %27

27:                                               ; preds = %22
  %28 = getelementptr inbounds [4096 x i8], ptr %3, i64 0, i64 0
  %29 = load ptr, ptr %8, align 8, !tbaa !133
  %30 = getelementptr inbounds nuw %struct._GError, ptr %29, i32 0, i32 2
  %31 = load ptr, ptr %30, align 8, !tbaa !135
  call void (ptr, ...) @dt_print_ext(ptr noundef @.str.101, ptr noundef @__func__.save_usercss, ptr noundef %28, ptr noundef %31)
  br label %32

32:                                               ; preds = %27, %22
  br label %33

33:                                               ; preds = %32
  br label %34

34:                                               ; preds = %33
  call void @g_clear_error(ptr noundef %8)
  br label %35

35:                                               ; preds = %34, %1
  %36 = load ptr, ptr %7, align 8, !tbaa !73
  call void @g_free(ptr noundef %36)
  call void @llvm.lifetime.end.p0(i64 8, ptr %8) #10
  call void @llvm.lifetime.end.p0(i64 8, ptr %7) #10
  call void @llvm.lifetime.end.p0(i64 80, ptr %6) #10
  call void @llvm.lifetime.end.p0(i64 80, ptr %5) #10
  call void @llvm.lifetime.end.p0(i64 4096, ptr %4) #10
  call void @llvm.lifetime.end.p0(i64 4096, ptr %3) #10
  ret void
}