; Function Attrs: nounwind uwtable
define internal fastcc void @save_usercss(ptr noundef %0) unnamed_addr #0 {
  %2 = alloca [4096 x i8], align 16
  %3 = alloca [4096 x i8], align 16
  %4 = alloca %struct._GtkTextIter, align 8
  %5 = alloca %struct._GtkTextIter, align 8
  %6 = alloca ptr, align 8
  call void @llvm.lifetime.start.p0(i64 4096, ptr nonnull %2) #12
  call void @llvm.memset.p0.i64(ptr noundef nonnull align 16 dereferenceable(4096) %2, i8 0, i64 4096, i1 false)
  call void @llvm.lifetime.start.p0(i64 4096, ptr nonnull %3) #12
  call void @llvm.memset.p0.i64(ptr noundef nonnull align 16 dereferenceable(4096) %3, i8 0, i64 4096, i1 false)
  call void @dt_loc_get_user_config_dir(ptr noundef nonnull %3, i64 noundef 4096) #12
  %7 = call i32 (ptr, i64, ptr, ...) @g_snprintf(ptr noundef nonnull %2, i64 noundef 4096, ptr noundef nonnull @.str.81, ptr noundef nonnull %3) #12
  call void @llvm.lifetime.start.p0(i64 80, ptr nonnull %4) #12
  call void @llvm.lifetime.start.p0(i64 80, ptr nonnull %5) #12
  call void @gtk_text_buffer_get_start_iter(ptr noundef %0, ptr noundef nonnull %4) #12
  call void @gtk_text_buffer_get_end_iter(ptr noundef %0, ptr noundef nonnull %5) #12
  %8 = call ptr @gtk_text_buffer_get_text(ptr noundef %0, ptr noundef nonnull %4, ptr noundef nonnull %5, i32 noundef 0) #12
  call void @llvm.lifetime.start.p0(i64 8, ptr nonnull %6) #12
  store ptr null, ptr %6, align 8, !tbaa !95
  %9 = call i32 @g_file_set_contents(ptr noundef nonnull %2, ptr noundef %8, i64 noundef -1, ptr noundef nonnull %6) #12
  %.not = icmp eq i32 %9, 0
  br i1 %.not, label %10, label %14

10:                                               ; preds = %1
  %11 = load ptr, ptr %6, align 8, !tbaa !95
  %12 = getelementptr inbounds nuw i8, ptr %11, i64 8
  %13 = load ptr, ptr %12, align 8, !tbaa !97
  call void (ptr, ...) @dt_print_ext(ptr noundef nonnull @.str.101, ptr noundef nonnull @__func__.save_usercss, ptr noundef nonnull %2, ptr noundef %13) #12
  call void @g_clear_error(ptr noundef nonnull %6) #12
  br label %14

14:                                               ; preds = %10, %1
  call void @g_free(ptr noundef %8) #12
  call void @llvm.lifetime.end.p0(i64 8, ptr nonnull %6) #12
  call void @llvm.lifetime.end.p0(i64 80, ptr nonnull %5) #12
  call void @llvm.lifetime.end.p0(i64 80, ptr nonnull %4) #12
  call void @llvm.lifetime.end.p0(i64 4096, ptr nonnull %3) #12
  call void @llvm.lifetime.end.p0(i64 4096, ptr nonnull %2) #12
  ret void
}